target datalayout = "e-m:e-p270:32:32-p271:32:32-p272:64:64-i64:64-i128:128-f80:128-n8:16:32:64-S128"
target triple = "x86_64-pc-linux-gnu"

%struct.DdManager = type { %struct.DdNode, ptr, ptr, ptr, ptr, ptr, ptr, ptr, i32, i32, double, double, double, i32, i32, i32, i32, i32, i32, ptr, ptr, %struct.DdSubtable, i32, i32, i32, i32, i32, i32, i32, double, i32, i32, i32, ptr, i64, double, i32, ptr, ptr, ptr, ptr, ptr, ptr, ptr, i32, ptr, ptr, ptr, ptr, ptr, ptr, i32, i32, i32, double, i32, i32, i32, i32, double, double, i32, i32, i32, i32, i32, i32, i32, i32, i32, ptr, ptr, i32, i32, i32, i32, i32, i32, ptr, ptr, ptr, ptr, ptr, ptr, ptr, ptr, i32, i64, i64, i64, i32, i64, i64, double, double, double, double, double, double, i32, ptr, ptr, i64 }
%struct.DdNode = type { i32, i32, ptr, %union.anon, i64 }
%union.anon = type { %struct.DdChildren }
%struct.DdChildren = type { ptr, ptr }
%struct.DdSubtable = type { ptr, i32, i32, i32, i32, i32, i32, i32, i32, i32, i32, i32 }

; Function Attrs: nounwind uwtable
define ptr @Extra_bddEncodingBinary(ptr noundef %0, ptr noundef %1, i32 noundef %2, ptr noundef %3, i32 noundef %4) #0 {
  %6 = alloca ptr, align 8
  %7 = alloca ptr, align 8
  %8 = alloca i32, align 4
  %9 = alloca ptr, align 8
  %10 = alloca i32, align 4
  %11 = alloca i32, align 4
  %12 = alloca ptr, align 8
  %13 = alloca ptr, align 8
  %14 = alloca ptr, align 8
  %15 = alloca ptr, align 8
  store ptr %0, ptr %6, align 8, !tbaa !3
  store ptr %1, ptr %7, align 8, !tbaa !8
  store i32 %2, ptr %8, align 4, !tbaa !10
  store ptr %3, ptr %9, align 8, !tbaa !8
  store i32 %4, ptr %10, align 4, !tbaa !10
  call void @llvm.lifetime.start.p0(i64 4, ptr %11) #6
  call void @llvm.lifetime.start.p0(i64 8, ptr %12) #6
  call void @llvm.lifetime.start.p0(i64 8, ptr %13) #6
  call void @llvm.lifetime.start.p0(i64 8, ptr %14) #6
  call void @llvm.lifetime.start.p0(i64 8, ptr %15) #6
  %16 = load ptr, ptr %6, align 8, !tbaa !3
  %17 = getelementptr inbounds nuw %struct.DdManager, ptr %16, i32 0, i32 1
  %18 = load ptr, ptr %17, align 8, !tbaa !12
  %19 = ptrtoint ptr %18 to i64
  %20 = xor i64 %19, 1
  %21 = inttoptr i64 %20 to ptr
  store ptr %21, ptr %12, align 8, !tbaa !28
  %22 = load ptr, ptr %12, align 8, !tbaa !28
  call void @Cudd_Ref(ptr noundef %22)
  store i32 0, ptr %11, align 4, !tbaa !10
  br label %23

23:                                               ; preds = %54, %5
  %24 = load i32, ptr %11, align 4, !tbaa !10
  %25 = load i32, ptr %8, align 4, !tbaa !10
  %26 = icmp slt i32 %24, %25
  br i1 %26, label %27, label %57

27:                                               ; preds = %23
  %28 = load ptr, ptr %6, align 8, !tbaa !3
  %29 = load i32, ptr %11, align 4, !tbaa !10
  %30 = load i32, ptr %10, align 4, !tbaa !10
  %31 = load ptr, ptr %9, align 8, !tbaa !8
  %32 = call ptr @Extra_bddBitsToCube(ptr noundef %28, i32 noundef %29, i32 noundef %30, ptr noundef %31, i32 noundef 1)
  store ptr %32, ptr %13, align 8, !tbaa !28
  %33 = load ptr, ptr %13, align 8, !tbaa !28
  call void @Cudd_Ref(ptr noundef %33)
  %34 = load ptr, ptr %6, align 8, !tbaa !3
  %35 = load ptr, ptr %13, align 8, !tbaa !28
  %36 = load ptr, ptr %7, align 8, !tbaa !8
  %37 = load i32, ptr %11, align 4, !tbaa !10
  %38 = sext i32 %37 to i64
  %39 = getelementptr inbounds ptr, ptr %36, i64 %38
  %40 = load ptr, ptr %39, align 8, !tbaa !28
  %41 = call ptr @Cudd_bddAnd(ptr noundef %34, ptr noundef %35, ptr noundef %40)
  store ptr %41, ptr %15, align 8, !tbaa !28
  %42 = load ptr, ptr %15, align 8, !tbaa !28
  call void @Cudd_Ref(ptr noundef %42)
  %43 = load ptr, ptr %6, align 8, !tbaa !3
  %44 = load ptr, ptr %13, align 8, !tbaa !28
  call void @Cudd_RecursiveDeref(ptr noundef %43, ptr noundef %44)
  %45 = load ptr, ptr %6, align 8, !tbaa !3
  %46 = load ptr, ptr %15, align 8, !tbaa !28
  %47 = load ptr, ptr %12, align 8, !tbaa !28
  store ptr %47, ptr %14, align 8, !tbaa !28
  %48 = call ptr @Cudd_bddOr(ptr noundef %45, ptr noundef %46, ptr noundef %47)
  store ptr %48, ptr %12, align 8, !tbaa !28
  %49 = load ptr, ptr %12, align 8, !tbaa !28
  call void @Cudd_Ref(ptr noundef %49)
  %50 = load ptr, ptr %6, align 8, !tbaa !3
  %51 = load ptr, ptr %14, align 8, !tbaa !28
  call void @Cudd_RecursiveDeref(ptr noundef %50, ptr noundef %51)
  %52 = load ptr, ptr %6, align 8, !tbaa !3
  %53 = load ptr, ptr %15, align 8, !tbaa !28
  call void @Cudd_RecursiveDeref(ptr noundef %52, ptr noundef %53)
  br label %54

54:                                               ; preds = %27
  %55 = load i32, ptr %11, align 4, !tbaa !10
  %56 = add nsw i32 %55, 1
  store i32 %56, ptr %11, align 4, !tbaa !10
  br label %23, !llvm.loop !29

57:                                               ; preds = %23
  %58 = load ptr, ptr %12, align 8, !tbaa !28
  call void @Cudd_Deref(ptr noundef %58)
  %59 = load ptr, ptr %12, align 8, !tbaa !28
  call void @llvm.lifetime.end.p0(i64 8, ptr %15) #6
  call void @llvm.lifetime.end.p0(i64 8, ptr %14) #6
  call void @llvm.lifetime.end.p0(i64 8, ptr %13) #6
  call void @llvm.lifetime.end.p0(i64 8, ptr %12) #6
  call void @llvm.lifetime.end.p0(i64 4, ptr %11) #6
  ret ptr %59
}